; Function Attrs: nounwind uwtable
define void @Abc_FrameSetManDsd(ptr noundef %0) local_unnamed_addr #1 {
  %2 = load ptr, ptr @s_GlobalFrame, align 8, !tbaa !3
  %3 = getelementptr inbounds nuw i8, ptr %2, i64 184
  %4 = load ptr, ptr %3, align 8, !tbaa !35
  %.not = icmp eq ptr %4, null
  %.not2 = icmp eq ptr %4, %0
  %or.cond = or i1 %.not, %.not2
  br i1 %or.cond, label %6, label %5

5:                                                ; preds = %1
  tail call void @If_DsdManFree(ptr noundef nonnull %4, i32 noundef 0) #20
  %.pre = load ptr, ptr @s_GlobalFrame, align 8, !tbaa !3
  br label %6

6:                                                ; preds = %5, %1
  %7 = phi ptr [ %.pre, %5 ], [ %2, %1 ]
  %8 = getelementptr inbounds nuw i8, ptr %7, i64 184
  store ptr %0, ptr %8, align 8, !tbaa !35
  ret void
}